; ModuleID = 'source-C-CXX/48/1160.cpp'
source_filename = "source-C-CXX/48/1160.cpp"
target datalayout = "e-m:e-p270:32:32-p271:32:32-p272:64:64-i64:64-f80:128-n8:16:32:64-S128"
target triple = "x86_64-pc-linux-gnu"

%"class.std::ios_base::Init" = type { i8 }
%"class.std::basic_istream" = type { i32 (...)**, i64, %"class.std::basic_ios" }
%"class.std::basic_ios" = type { %"class.std::ios_base", %"class.std::basic_ostream"*, i8, i8, %"class.std::basic_streambuf"*, %"class.std::ctype"*, %"class.std::num_put"*, %"class.std::num_get"* }
%"class.std::ios_base" = type { i32 (...)**, i64, i64, i32, i32, i32, %"struct.std::ios_base::_Callback_list"*, %"struct.std::ios_base::_Words", [8 x %"struct.std::ios_base::_Words"], i32, %"struct.std::ios_base::_Words"*, %"class.std::locale" }
%"struct.std::ios_base::_Callback_list" = type { %"struct.std::ios_base::_Callback_list"*, void (i32, %"class.std::ios_base"*, i32)*, i32, i32 }
%"struct.std::ios_base::_Words" = type { i8*, i64 }
%"class.std::locale" = type { %"class.std::locale::_Impl"* }
%"class.std::locale::_Impl" = type { i32, %"class.std::locale::facet"**, i64, %"class.std::locale::facet"**, i8** }
%"class.std::locale::facet" = type <{ i32 (...)**, i32, [4 x i8] }>
%"class.std::basic_ostream" = type { i32 (...)**, %"class.std::basic_ios" }
%"class.std::basic_streambuf" = type { i32 (...)**, i8*, i8*, i8*, i8*, i8*, i8*, %"class.std::locale" }
%"class.std::ctype" = type <{ %"class.std::locale::facet.base", [4 x i8], %struct.__locale_struct*, i8, [7 x i8], i32*, i32*, i16*, i8, [256 x i8], [256 x i8], i8, [6 x i8] }>
%"class.std::locale::facet.base" = type <{ i32 (...)**, i32 }>
%struct.__locale_struct = type { [13 x %struct.__locale_data*], i16*, i32*, i32*, [13 x i8*] }
%struct.__locale_data = type opaque
%"class.std::num_put" = type { %"class.std::locale::facet.base", [4 x i8] }
%"class.std::num_get" = type { %"class.std::locale::facet.base", [4 x i8] }

@_ZStL8__ioinit = internal global %"class.std::ios_base::Init" zeroinitializer, align 1
@__dso_handle = external hidden global i8
@_ZSt3cin = external global %"class.std::basic_istream", align 8
@_ZSt4cout = external global %"class.std::basic_ostream", align 8
@llvm.global_ctors = appending global [1 x { i32, void ()*, i8* }] [{ i32, void ()*, i8* } { i32 65535, void ()* @_GLOBAL__sub_I_1160.cpp, i8* null }]

declare void @_ZNSt8ios_base4InitC1Ev(%"class.std::ios_base::Init"* nonnull align 1 dereferenceable(1)) unnamed_addr #0

; Function Attrs: nounwind
declare void @_ZNSt8ios_base4InitD1Ev(%"class.std::ios_base::Init"* nonnull align 1 dereferenceable(1)) unnamed_addr #1

; Function Attrs: nofree nounwind
declare i32 @__cxa_atexit(void (i8*)*, i8*, i8*) local_unnamed_addr #2

; Function Attrs: mustprogress norecurse sspstrong uwtable
define dso_local i32 @main() local_unnamed_addr #3 {
  %1 = alloca i8, align 1
  %2 = alloca i8, align 1
  %3 = alloca [501 x i8], align 16
  %4 = getelementptr inbounds [501 x i8], [501 x i8]* %3, i64 0, i64 0
  call void @llvm.lifetime.start.p0i8(i64 501, i8* nonnull %4) #9
  call void @_ZSt17__istream_extractRSiPcl(%"class.std::basic_istream"* nonnull align 8 dereferenceable(16) @_ZSt3cin, i8* nonnull %4, i64 501)
  %5 = call i64 @strlen(i8* noundef nonnull %4) #10
  %6 = trunc i64 %5 to i32
  %7 = icmp slt i32 %6, 2
  br i1 %7, label %25, label %8

8:                                                ; preds = %0
  %9 = add i64 %5, 1
  %10 = and i64 %9, 4294967295
  br label %11

11:                                               ; preds = %8, %66
  %12 = phi i64 [ 0, %8 ], [ %70, %66 ]
  %13 = phi i64 [ 2, %8 ], [ %67, %66 ]
  %14 = phi i32 [ %6, %8 ], [ %17, %66 ]
  %15 = phi i64 [ 1, %8 ], [ %68, %66 ]
  %16 = add i64 %12, 2
  %17 = add i32 %14, -1
  %18 = trunc i64 %13 to i32
  %19 = icmp slt i32 %6, %18
  br i1 %19, label %66, label %20

20:                                               ; preds = %11
  %21 = zext i32 %17 to i64
  %22 = icmp ult i64 %16, 8
  %23 = and i64 %16, -8
  %24 = icmp eq i64 %16, %23
  br label %26

25:                                               ; preds = %66, %0
  call void @llvm.lifetime.end.p0i8(i64 501, i8* nonnull %4) #9
  ret i32 0

26:                                               ; preds = %20, %131
  %27 = phi i64 [ %15, %20 ], [ %133, %131 ]
  %28 = phi i64 [ 0, %20 ], [ %132, %131 ]
  %29 = add nuw nsw i64 %28, %13
  br i1 %22, label %63, label %30

30:                                               ; preds = %26, %30
  %31 = phi i64 [ %58, %30 ], [ 0, %26 ]
  %32 = phi <4 x i32> [ %56, %30 ], [ zeroinitializer, %26 ]
  %33 = phi <4 x i32> [ %57, %30 ], [ zeroinitializer, %26 ]
  %34 = add nuw nsw i64 %31, %28
  %35 = getelementptr inbounds [501 x i8], [501 x i8]* %3, i64 0, i64 %34
  %36 = bitcast i8* %35 to <4 x i8>*
  %37 = load <4 x i8>, <4 x i8>* %36, align 1, !tbaa !5
  %38 = getelementptr inbounds i8, i8* %35, i64 4
  %39 = bitcast i8* %38 to <4 x i8>*
  %40 = load <4 x i8>, <4 x i8>* %39, align 1, !tbaa !5
  %41 = xor i64 %31, -1
  %42 = add nsw i64 %29, %41
  %43 = getelementptr inbounds [501 x i8], [501 x i8]* %3, i64 0, i64 %42
  %44 = getelementptr inbounds i8, i8* %43, i64 -3
  %45 = bitcast i8* %44 to <4 x i8>*
  %46 = load <4 x i8>, <4 x i8>* %45, align 1, !tbaa !5
  %47 = shufflevector <4 x i8> %46, <4 x i8> poison, <4 x i32> <i32 3, i32 2, i32 1, i32 0>
  %48 = getelementptr inbounds i8, i8* %43, i64 -7
  %49 = bitcast i8* %48 to <4 x i8>*
  %50 = load <4 x i8>, <4 x i8>* %49, align 1, !tbaa !5
  %51 = shufflevector <4 x i8> %50, <4 x i8> poison, <4 x i32> <i32 3, i32 2, i32 1, i32 0>
  %52 = icmp eq <4 x i8> %37, %47
  %53 = icmp eq <4 x i8> %40, %51
  %54 = zext <4 x i1> %52 to <4 x i32>
  %55 = zext <4 x i1> %53 to <4 x i32>
  %56 = add <4 x i32> %32, %54
  %57 = add <4 x i32> %33, %55
  %58 = add nuw i64 %31, 8
  %59 = icmp eq i64 %58, %23
  br i1 %59, label %60, label %30, !llvm.loop !8

60:                                               ; preds = %30
  %61 = add <4 x i32> %57, %56
  %62 = call i32 @llvm.vector.reduce.add.v4i32(<4 x i32> %61)
  br i1 %24, label %71, label %63

63:                                               ; preds = %26, %60
  %64 = phi i64 [ 0, %26 ], [ %23, %60 ]
  %65 = phi i32 [ 0, %26 ], [ %62, %60 ]
  br label %75

66:                                               ; preds = %131, %11
  %67 = add nuw nsw i64 %13, 1
  %68 = add nuw nsw i64 %15, 1
  %69 = icmp eq i64 %67, %10
  %70 = add i64 %12, 1
  br i1 %69, label %25, label %11, !llvm.loop !11

71:                                               ; preds = %75, %60
  %72 = phi i32 [ %62, %60 ], [ %87, %75 ]
  %73 = zext i32 %72 to i64
  %74 = icmp eq i64 %13, %73
  br i1 %74, label %124, label %131

75:                                               ; preds = %63, %75
  %76 = phi i64 [ %88, %75 ], [ %64, %63 ]
  %77 = phi i32 [ %87, %75 ], [ %65, %63 ]
  %78 = add nuw nsw i64 %76, %28
  %79 = getelementptr inbounds [501 x i8], [501 x i8]* %3, i64 0, i64 %78
  %80 = load i8, i8* %79, align 1, !tbaa !5
  %81 = xor i64 %76, -1
  %82 = add nsw i64 %29, %81
  %83 = getelementptr inbounds [501 x i8], [501 x i8]* %3, i64 0, i64 %82
  %84 = load i8, i8* %83, align 1, !tbaa !5
  %85 = icmp eq i8 %80, %84
  %86 = zext i1 %85 to i32
  %87 = add nuw nsw i32 %77, %86
  %88 = add nuw nsw i64 %76, 1
  %89 = icmp eq i64 %88, %13
  br i1 %89, label %71, label %75, !llvm.loop !12

90:                                               ; preds = %124
  %91 = add nsw i64 %29, -1
  %92 = getelementptr inbounds [501 x i8], [501 x i8]* %3, i64 0, i64 %91
  %93 = load i8, i8* %92, align 1, !tbaa !5
  call void @llvm.lifetime.start.p0i8(i64 1, i8* nonnull %2)
  store i8 %93, i8* %2, align 1, !tbaa !5
  %94 = call nonnull align 8 dereferenceable(8) %"class.std::basic_ostream"* @_ZSt16__ostream_insertIcSt11char_traitsIcEERSt13basic_ostreamIT_T0_ES6_PKS3_l(%"class.std::basic_ostream"* nonnull align 8 dereferenceable(8) @_ZSt4cout, i8* nonnull %2, i64 1)
  call void @llvm.lifetime.end.p0i8(i64 1, i8* nonnull %2)
  %95 = bitcast %"class.std::basic_ostream"* %94 to i8**
  %96 = load i8*, i8** %95, align 8, !tbaa !14
  %97 = getelementptr i8, i8* %96, i64 -24
  %98 = bitcast i8* %97 to i64*
  %99 = load i64, i64* %98, align 8
  %100 = bitcast %"class.std::basic_ostream"* %94 to i8*
  %101 = add nsw i64 %99, 240
  %102 = getelementptr inbounds i8, i8* %100, i64 %101
  %103 = bitcast i8* %102 to %"class.std::ctype"**
  %104 = load %"class.std::ctype"*, %"class.std::ctype"** %103, align 8, !tbaa !16
  %105 = icmp eq %"class.std::ctype"* %104, null
  br i1 %105, label %106, label %107

106:                                              ; preds = %90
  call void @_ZSt16__throw_bad_castv() #11
  unreachable

107:                                              ; preds = %90
  %108 = getelementptr inbounds %"class.std::ctype", %"class.std::ctype"* %104, i64 0, i32 8
  %109 = load i8, i8* %108, align 8, !tbaa !20
  %110 = icmp eq i8 %109, 0
  br i1 %110, label %114, label %111

111:                                              ; preds = %107
  %112 = getelementptr inbounds %"class.std::ctype", %"class.std::ctype"* %104, i64 0, i32 9, i64 10
  %113 = load i8, i8* %112, align 1, !tbaa !5
  br label %120

114:                                              ; preds = %107
  call void @_ZNKSt5ctypeIcE13_M_widen_initEv(%"class.std::ctype"* nonnull align 8 dereferenceable(570) %104)
  %115 = bitcast %"class.std::ctype"* %104 to i8 (%"class.std::ctype"*, i8)***
  %116 = load i8 (%"class.std::ctype"*, i8)**, i8 (%"class.std::ctype"*, i8)*** %115, align 8, !tbaa !14
  %117 = getelementptr inbounds i8 (%"class.std::ctype"*, i8)*, i8 (%"class.std::ctype"*, i8)** %116, i64 6
  %118 = load i8 (%"class.std::ctype"*, i8)*, i8 (%"class.std::ctype"*, i8)** %117, align 8
  %119 = call signext i8 %118(%"class.std::ctype"* nonnull align 8 dereferenceable(570) %104, i8 signext 10)
  br label %120

120:                                              ; preds = %111, %114
  %121 = phi i8 [ %113, %111 ], [ %119, %114 ]
  %122 = call nonnull align 8 dereferenceable(8) %"class.std::basic_ostream"* @_ZNSo3putEc(%"class.std::basic_ostream"* nonnull align 8 dereferenceable(8) %94, i8 signext %121)
  %123 = call nonnull align 8 dereferenceable(8) %"class.std::basic_ostream"* @_ZNSo5flushEv(%"class.std::basic_ostream"* nonnull align 8 dereferenceable(8) %122)
  br label %131

124:                                              ; preds = %71, %124
  %125 = phi i64 [ %129, %124 ], [ %28, %71 ]
  %126 = getelementptr inbounds [501 x i8], [501 x i8]* %3, i64 0, i64 %125
  %127 = load i8, i8* %126, align 1, !tbaa !5
  call void @llvm.lifetime.start.p0i8(i64 1, i8* nonnull %1)
  store i8 %127, i8* %1, align 1, !tbaa !5
  %128 = call nonnull align 8 dereferenceable(8) %"class.std::basic_ostream"* @_ZSt16__ostream_insertIcSt11char_traitsIcEERSt13basic_ostreamIT_T0_ES6_PKS3_l(%"class.std::basic_ostream"* nonnull align 8 dereferenceable(8) @_ZSt4cout, i8* nonnull %1, i64 1)
  call void @llvm.lifetime.end.p0i8(i64 1, i8* nonnull %1)
  %129 = add nuw nsw i64 %125, 1
  %130 = icmp eq i64 %129, %27
  br i1 %130, label %90, label %124, !llvm.loop !22

131:                                              ; preds = %71, %120
  %132 = add nuw nsw i64 %28, 1
  %133 = add nuw nsw i64 %27, 1
  %134 = icmp eq i64 %132, %21
  br i1 %134, label %66, label %26, !llvm.loop !23
}

; Function Attrs: argmemonly mustprogress nofree nosync nounwind willreturn
declare void @llvm.lifetime.start.p0i8(i64 immarg, i8* nocapture) #4

; Function Attrs: argmemonly mustprogress nofree nounwind readonly willreturn
declare i64 @strlen(i8* nocapture) local_unnamed_addr #5

; Function Attrs: argmemonly mustprogress nofree nosync nounwind willreturn
declare void @llvm.lifetime.end.p0i8(i64 immarg, i8* nocapture) #4

declare void @_ZSt17__istream_extractRSiPcl(%"class.std::basic_istream"* nonnull align 8 dereferenceable(16), i8*, i64) local_unnamed_addr #0

declare nonnull align 8 dereferenceable(8) %"class.std::basic_ostream"* @_ZSt16__ostream_insertIcSt11char_traitsIcEERSt13basic_ostreamIT_T0_ES6_PKS3_l(%"class.std::basic_ostream"* nonnull align 8 dereferenceable(8), i8*, i64) local_unnamed_addr #0

declare nonnull align 8 dereferenceable(8) %"class.std::basic_ostream"* @_ZNSo3putEc(%"class.std::basic_ostream"* nonnull align 8 dereferenceable(8), i8 signext) local_unnamed_addr #0

declare nonnull align 8 dereferenceable(8) %"class.std::basic_ostream"* @_ZNSo5flushEv(%"class.std::basic_ostream"* nonnull align 8 dereferenceable(8)) local_unnamed_addr #0

; Function Attrs: noreturn
declare void @_ZSt16__throw_bad_castv() local_unnamed_addr #6

declare void @_ZNKSt5ctypeIcE13_M_widen_initEv(%"class.std::ctype"* nonnull align 8 dereferenceable(570)) local_unnamed_addr #0

; Function Attrs: sspstrong uwtable
define internal void @_GLOBAL__sub_I_1160.cpp() #7 section ".text.startup" {
  tail call void @_ZNSt8ios_base4InitC1Ev(%"class.std::ios_base::Init"* nonnull align 1 dereferenceable(1) @_ZStL8__ioinit)
  %1 = tail call i32 @__cxa_atexit(void (i8*)* bitcast (void (%"class.std::ios_base::Init"*)* @_ZNSt8ios_base4InitD1Ev to void (i8*)*), i8* getelementptr inbounds (%"class.std::ios_base::Init", %"class.std::ios_base::Init"* @_ZStL8__ioinit, i64 0, i32 0), i8* nonnull @__dso_handle) #9
  ret void
}

; Function Attrs: nofree nosync nounwind readnone willreturn
declare i32 @llvm.vector.reduce.add.v4i32(<4 x i32>) #8


!llvm.module.flags = !{!0, !1, !2, !3}
!llvm.ident = !{!4}

!0 = !{i32 1, !"wchar_size", i32 4}
!1 = !{i32 7, !"PIC Level", i32 2}
!2 = !{i32 7, !"PIE Level", i32 2}
!3 = !{i32 7, !"uwtable", i32 1}
!4 = !{!"clang version 13.0.0"}
!5 = !{!6, !6, i64 0}
!6 = !{!"omnipotent char", !7, i64 0}
!7 = !{!"Simple C++ TBAA"}
!8 = distinct !{!8, !9, !10}
!9 = !{!"llvm.loop.mustprogress"}
!10 = !{!"llvm.loop.isvectorized", i32 1}
!11 = distinct !{!11, !9}
!12 = distinct !{!12, !9, !13, !10}
!13 = !{!"llvm.loop.unroll.runtime.disable"}
!14 = !{!15, !15, i64 0}
!15 = !{!"vtable pointer", !7, i64 0}
!16 = !{!17, !18, i64 240}
!17 = !{!"_ZTSSt9basic_iosIcSt11char_traitsIcEE", !18, i64 216, !6, i64 224, !19, i64 225, !18, i64 232, !18, i64 240, !18, i64 248, !18, i64 256}
!18 = !{!"any pointer", !6, i64 0}
!19 = !{!"bool", !6, i64 0}
!20 = !{!21, !6, i64 56}
!21 = !{!"_ZTSSt5ctypeIcE", !18, i64 16, !19, i64 24, !18, i64 32, !18, i64 40, !18, i64 48, !6, i64 56, !6, i64 57, !6, i64 313, !6, i64 569}
!22 = distinct !{!22, !9}
!23 = distinct !{!23, !9}
